
i2c_config.elf:     file format elf32-avr

Sections:
Idx Name          Size      VMA       LMA       File off  Algn
  0 .data         00000002  00800100  00000398  0000042c  2**0
                  CONTENTS, ALLOC, LOAD, DATA
  1 .text         00000398  00000000  00000000  00000094  2**1
                  CONTENTS, ALLOC, LOAD, READONLY, CODE
  2 .bss          00000005  00800102  00800102  0000042e  2**0
                  ALLOC
  3 .comment      00000030  00000000  00000000  0000042e  2**0
                  CONTENTS, READONLY
  4 .debug_aranges 00000068  00000000  00000000  0000045e  2**0
                  CONTENTS, READONLY, DEBUGGING
  5 .debug_info   00000712  00000000  00000000  000004c6  2**0
                  CONTENTS, READONLY, DEBUGGING
  6 .debug_abbrev 000002a4  00000000  00000000  00000bd8  2**0
                  CONTENTS, READONLY, DEBUGGING
  7 .debug_line   00000407  00000000  00000000  00000e7c  2**0
                  CONTENTS, READONLY, DEBUGGING
  8 .debug_frame  0000010c  00000000  00000000  00001284  2**2
                  CONTENTS, READONLY, DEBUGGING
  9 .debug_str    000002e4  00000000  00000000  00001390  2**0
                  CONTENTS, READONLY, DEBUGGING
 10 .debug_loc    0000046a  00000000  00000000  00001674  2**0
                  CONTENTS, READONLY, DEBUGGING
 11 .debug_ranges 00000058  00000000  00000000  00001ade  2**0
                  CONTENTS, READONLY, DEBUGGING

Disassembly of section .text:

00000000 <__vectors>:
   0:	96 c0       	rjmp	.+300    	; 0x12e <__ctors_end>
   2:	00 00       	nop
   4:	b1 c0       	rjmp	.+354    	; 0x168 <__bad_interrupt>
   6:	00 00       	nop
   8:	af c0       	rjmp	.+350    	; 0x168 <__bad_interrupt>
   a:	00 00       	nop
   c:	ad c0       	rjmp	.+346    	; 0x168 <__bad_interrupt>
   e:	00 00       	nop
  10:	ab c0       	rjmp	.+342    	; 0x168 <__bad_interrupt>
  12:	00 00       	nop
  14:	a9 c0       	rjmp	.+338    	; 0x168 <__bad_interrupt>
  16:	00 00       	nop
  18:	a7 c0       	rjmp	.+334    	; 0x168 <__bad_interrupt>
  1a:	00 00       	nop
  1c:	a5 c0       	rjmp	.+330    	; 0x168 <__bad_interrupt>
  1e:	00 00       	nop
  20:	a3 c0       	rjmp	.+326    	; 0x168 <__bad_interrupt>
  22:	00 00       	nop
  24:	a1 c0       	rjmp	.+322    	; 0x168 <__bad_interrupt>
  26:	00 00       	nop
  28:	9f c0       	rjmp	.+318    	; 0x168 <__bad_interrupt>
  2a:	00 00       	nop
  2c:	9d c0       	rjmp	.+314    	; 0x168 <__bad_interrupt>
  2e:	00 00       	nop
  30:	9b c0       	rjmp	.+310    	; 0x168 <__bad_interrupt>
  32:	00 00       	nop
  34:	99 c0       	rjmp	.+306    	; 0x168 <__bad_interrupt>
  36:	00 00       	nop
  38:	97 c0       	rjmp	.+302    	; 0x168 <__bad_interrupt>
  3a:	00 00       	nop
  3c:	95 c0       	rjmp	.+298    	; 0x168 <__bad_interrupt>
  3e:	00 00       	nop
  40:	93 c0       	rjmp	.+294    	; 0x168 <__bad_interrupt>
  42:	00 00       	nop
  44:	91 c0       	rjmp	.+290    	; 0x168 <__bad_interrupt>
  46:	00 00       	nop
  48:	8f c0       	rjmp	.+286    	; 0x168 <__bad_interrupt>
  4a:	00 00       	nop
  4c:	8d c0       	rjmp	.+282    	; 0x168 <__bad_interrupt>
  4e:	00 00       	nop
  50:	8b c0       	rjmp	.+278    	; 0x168 <__bad_interrupt>
  52:	00 00       	nop
  54:	89 c0       	rjmp	.+274    	; 0x168 <__bad_interrupt>
  56:	00 00       	nop
  58:	87 c0       	rjmp	.+270    	; 0x168 <__bad_interrupt>
  5a:	00 00       	nop
  5c:	85 c0       	rjmp	.+266    	; 0x168 <__bad_interrupt>
  5e:	00 00       	nop
  60:	83 c0       	rjmp	.+262    	; 0x168 <__bad_interrupt>
  62:	00 00       	nop
  64:	81 c0       	rjmp	.+258    	; 0x168 <__bad_interrupt>
  66:	00 00       	nop
  68:	ba c0       	rjmp	.+372    	; 0x1de <__vector_26>
  6a:	00 00       	nop
  6c:	7d c0       	rjmp	.+250    	; 0x168 <__bad_interrupt>
  6e:	00 00       	nop
  70:	7b c0       	rjmp	.+246    	; 0x168 <__bad_interrupt>
  72:	00 00       	nop
  74:	79 c0       	rjmp	.+242    	; 0x168 <__bad_interrupt>
  76:	00 00       	nop
  78:	77 c0       	rjmp	.+238    	; 0x168 <__bad_interrupt>
  7a:	00 00       	nop
  7c:	75 c0       	rjmp	.+234    	; 0x168 <__bad_interrupt>
  7e:	00 00       	nop
  80:	73 c0       	rjmp	.+230    	; 0x168 <__bad_interrupt>
  82:	00 00       	nop
  84:	71 c0       	rjmp	.+226    	; 0x168 <__bad_interrupt>
  86:	00 00       	nop
  88:	6f c0       	rjmp	.+222    	; 0x168 <__bad_interrupt>
  8a:	00 00       	nop
  8c:	0f 01       	movw	r0, r30
  8e:	5b 01       	movw	r10, r22
  90:	5b 01       	movw	r10, r22
  92:	5b 01       	movw	r10, r22
  94:	5b 01       	movw	r10, r22
  96:	5b 01       	movw	r10, r22
  98:	5b 01       	movw	r10, r22
  9a:	5b 01       	movw	r10, r22
  9c:	16 01       	movw	r2, r12
  9e:	5b 01       	movw	r10, r22
  a0:	5b 01       	movw	r10, r22
  a2:	5b 01       	movw	r10, r22
  a4:	5b 01       	movw	r10, r22
  a6:	5b 01       	movw	r10, r22
  a8:	5b 01       	movw	r10, r22
  aa:	5b 01       	movw	r10, r22
  ac:	1d 01       	movw	r2, r26
  ae:	5b 01       	movw	r10, r22
  b0:	5b 01       	movw	r10, r22
  b2:	5b 01       	movw	r10, r22
  b4:	5b 01       	movw	r10, r22
  b6:	5b 01       	movw	r10, r22
  b8:	5b 01       	movw	r10, r22
  ba:	5b 01       	movw	r10, r22
  bc:	25 01       	movw	r4, r10
  be:	5b 01       	movw	r10, r22
  c0:	5b 01       	movw	r10, r22
  c2:	5b 01       	movw	r10, r22
  c4:	5b 01       	movw	r10, r22
  c6:	5b 01       	movw	r10, r22
  c8:	5b 01       	movw	r10, r22
  ca:	5b 01       	movw	r10, r22
  cc:	2a 01       	movw	r4, r20
  ce:	5b 01       	movw	r10, r22
  d0:	5b 01       	movw	r10, r22
  d2:	5b 01       	movw	r10, r22
  d4:	5b 01       	movw	r10, r22
  d6:	5b 01       	movw	r10, r22
  d8:	5b 01       	movw	r10, r22
  da:	5b 01       	movw	r10, r22
  dc:	5b 01       	movw	r10, r22
  de:	5b 01       	movw	r10, r22
  e0:	5b 01       	movw	r10, r22
  e2:	5b 01       	movw	r10, r22
  e4:	5b 01       	movw	r10, r22
  e6:	5b 01       	movw	r10, r22
  e8:	5b 01       	movw	r10, r22
  ea:	5b 01       	movw	r10, r22
  ec:	5b 01       	movw	r10, r22
  ee:	5b 01       	movw	r10, r22
  f0:	5b 01       	movw	r10, r22
  f2:	5b 01       	movw	r10, r22
  f4:	5b 01       	movw	r10, r22
  f6:	5b 01       	movw	r10, r22
  f8:	5b 01       	movw	r10, r22
  fa:	5b 01       	movw	r10, r22
  fc:	49 01       	movw	r8, r18
  fe:	5b 01       	movw	r10, r22
 100:	5b 01       	movw	r10, r22
 102:	5b 01       	movw	r10, r22
 104:	5b 01       	movw	r10, r22
 106:	5b 01       	movw	r10, r22
 108:	5b 01       	movw	r10, r22
 10a:	5b 01       	movw	r10, r22
 10c:	5b 01       	movw	r10, r22
 10e:	5b 01       	movw	r10, r22
 110:	5b 01       	movw	r10, r22
 112:	5b 01       	movw	r10, r22
 114:	5b 01       	movw	r10, r22
 116:	5b 01       	movw	r10, r22
 118:	5b 01       	movw	r10, r22
 11a:	5b 01       	movw	r10, r22
 11c:	53 01       	movw	r10, r6
 11e:	5b 01       	movw	r10, r22
 120:	5b 01       	movw	r10, r22
 122:	5b 01       	movw	r10, r22
 124:	5b 01       	movw	r10, r22
 126:	5b 01       	movw	r10, r22
 128:	5b 01       	movw	r10, r22
 12a:	5b 01       	movw	r10, r22
 12c:	4d 01       	movw	r8, r26

0000012e <__ctors_end>:
 12e:	11 24       	eor	r1, r1
 130:	1f be       	out	0x3f, r1	; 63
 132:	cf ef       	ldi	r28, 0xFF	; 255
 134:	d0 e4       	ldi	r29, 0x40	; 64
 136:	de bf       	out	0x3e, r29	; 62
 138:	cd bf       	out	0x3d, r28	; 61

0000013a <__do_copy_data>:
 13a:	11 e0       	ldi	r17, 0x01	; 1
 13c:	a0 e0       	ldi	r26, 0x00	; 0
 13e:	b1 e0       	ldi	r27, 0x01	; 1
 140:	e8 e9       	ldi	r30, 0x98	; 152
 142:	f3 e0       	ldi	r31, 0x03	; 3
 144:	00 e0       	ldi	r16, 0x00	; 0
 146:	0b bf       	out	0x3b, r16	; 59
 148:	02 c0       	rjmp	.+4      	; 0x14e <__do_copy_data+0x14>
 14a:	07 90       	elpm	r0, Z+
 14c:	0d 92       	st	X+, r0
 14e:	a2 30       	cpi	r26, 0x02	; 2
 150:	b1 07       	cpc	r27, r17
 152:	d9 f7       	brne	.-10     	; 0x14a <__do_copy_data+0x10>

00000154 <__do_clear_bss>:
 154:	21 e0       	ldi	r18, 0x01	; 1
 156:	a2 e0       	ldi	r26, 0x02	; 2
 158:	b1 e0       	ldi	r27, 0x01	; 1
 15a:	01 c0       	rjmp	.+2      	; 0x15e <.do_clear_bss_start>

0000015c <.do_clear_bss_loop>:
 15c:	1d 92       	st	X+, r1

0000015e <.do_clear_bss_start>:
 15e:	a7 30       	cpi	r26, 0x07	; 7
 160:	b2 07       	cpc	r27, r18
 162:	e1 f7       	brne	.-8      	; 0x15c <.do_clear_bss_loop>
 164:	d8 d0       	rcall	.+432    	; 0x316 <main>
 166:	16 c1       	rjmp	.+556    	; 0x394 <_exit>

00000168 <__bad_interrupt>:
 168:	4b cf       	rjmp	.-362    	; 0x0 <__vectors>

0000016a <i2c_init>:
{
	int16_t shifted_data = 0;
	uint16_t shifted = (uint16_t)high << 8;
	shifted_data = (shifted | (uint16_t)low);
	return shifted_data;
}
 16a:	10 92 b9 00 	sts	0x00B9, r1
 16e:	8c e0       	ldi	r24, 0x0C	; 12
 170:	80 93 b8 00 	sts	0x00B8, r24
 174:	85 e0       	ldi	r24, 0x05	; 5
 176:	80 93 bc 00 	sts	0x00BC, r24
 17a:	08 95       	ret

0000017c <i2c_start>:
 17c:	85 ea       	ldi	r24, 0xA5	; 165
 17e:	80 93 bc 00 	sts	0x00BC, r24
 182:	10 92 01 01 	sts	0x0101, r1
 186:	08 95       	ret

00000188 <i2c_stop>:
 188:	85 e9       	ldi	r24, 0x95	; 149
 18a:	80 93 bc 00 	sts	0x00BC, r24
 18e:	81 e0       	ldi	r24, 0x01	; 1
 190:	80 93 01 01 	sts	0x0101, r24
 194:	08 95       	ret

00000196 <led_blinker>:
 196:	2f e9       	ldi	r18, 0x9F	; 159
 198:	36 e8       	ldi	r19, 0x86	; 134
 19a:	41 e0       	ldi	r20, 0x01	; 1
 19c:	21 50       	subi	r18, 0x01	; 1
 19e:	30 40       	sbci	r19, 0x00	; 0
 1a0:	40 40       	sbci	r20, 0x00	; 0
 1a2:	e1 f7       	brne	.-8      	; 0x19c <led_blinker+0x6>
 1a4:	00 c0       	rjmp	.+0      	; 0x1a6 <led_blinker+0x10>
 1a6:	00 00       	nop
 1a8:	88 23       	and	r24, r24
 1aa:	c1 f0       	breq	.+48     	; 0x1dc <led_blinker+0x46>
 1ac:	90 e0       	ldi	r25, 0x00	; 0
 1ae:	28 9a       	sbi	0x05, 0	; 5
 1b0:	2f e9       	ldi	r18, 0x9F	; 159
 1b2:	36 e8       	ldi	r19, 0x86	; 134
 1b4:	41 e0       	ldi	r20, 0x01	; 1
 1b6:	21 50       	subi	r18, 0x01	; 1
 1b8:	30 40       	sbci	r19, 0x00	; 0
 1ba:	40 40       	sbci	r20, 0x00	; 0
 1bc:	e1 f7       	brne	.-8      	; 0x1b6 <led_blinker+0x20>
 1be:	00 c0       	rjmp	.+0      	; 0x1c0 <led_blinker+0x2a>
 1c0:	00 00       	nop
 1c2:	15 b8       	out	0x05, r1	; 5
 1c4:	2f e9       	ldi	r18, 0x9F	; 159
 1c6:	36 e8       	ldi	r19, 0x86	; 134
 1c8:	41 e0       	ldi	r20, 0x01	; 1
 1ca:	21 50       	subi	r18, 0x01	; 1
 1cc:	30 40       	sbci	r19, 0x00	; 0
 1ce:	40 40       	sbci	r20, 0x00	; 0
 1d0:	e1 f7       	brne	.-8      	; 0x1ca <led_blinker+0x34>
 1d2:	00 c0       	rjmp	.+0      	; 0x1d4 <led_blinker+0x3e>
 1d4:	00 00       	nop
 1d6:	9f 5f       	subi	r25, 0xFF	; 255
 1d8:	98 13       	cpse	r25, r24
 1da:	e9 cf       	rjmp	.-46     	; 0x1ae <led_blinker+0x18>
 1dc:	08 95       	ret

000001de <__vector_26>:
 1de:	1f 92       	push	r1
 1e0:	0f 92       	push	r0
 1e2:	0f b6       	in	r0, 0x3f	; 63
 1e4:	0f 92       	push	r0
 1e6:	11 24       	eor	r1, r1
 1e8:	0b b6       	in	r0, 0x3b	; 59
 1ea:	0f 92       	push	r0
 1ec:	2f 93       	push	r18
 1ee:	3f 93       	push	r19
 1f0:	4f 93       	push	r20
 1f2:	5f 93       	push	r21
 1f4:	6f 93       	push	r22
 1f6:	7f 93       	push	r23
 1f8:	8f 93       	push	r24
 1fa:	9f 93       	push	r25
 1fc:	af 93       	push	r26
 1fe:	bf 93       	push	r27
 200:	ef 93       	push	r30
 202:	ff 93       	push	r31
 204:	80 91 b9 00 	lds	r24, 0x00B9
 208:	88 7f       	andi	r24, 0xF8	; 248
 20a:	90 e0       	ldi	r25, 0x00	; 0
 20c:	fc 01       	movw	r30, r24
 20e:	38 97       	sbiw	r30, 0x08	; 8
 210:	e1 35       	cpi	r30, 0x51	; 81
 212:	f1 05       	cpc	r31, r1
 214:	08 f0       	brcs	.+2      	; 0x218 <__vector_26+0x3a>
 216:	4f c0       	rjmp	.+158    	; 0x2b6 <__vector_26+0xd8>
 218:	ea 5b       	subi	r30, 0xBA	; 186
 21a:	ff 4f       	sbci	r31, 0xFF	; 255
 21c:	b5 c0       	rjmp	.+362    	; 0x388 <__tablejump2__>
 21e:	82 e3       	ldi	r24, 0x32	; 50
 220:	80 93 bb 00 	sts	0x00BB, r24
 224:	85 e8       	ldi	r24, 0x85	; 133
 226:	80 93 bc 00 	sts	0x00BC, r24
 22a:	45 c0       	rjmp	.+138    	; 0x2b6 <__vector_26+0xd8>
 22c:	83 e3       	ldi	r24, 0x33	; 51
 22e:	80 93 bb 00 	sts	0x00BB, r24
 232:	85 e8       	ldi	r24, 0x85	; 133
 234:	80 93 bc 00 	sts	0x00BC, r24
 238:	3e c0       	rjmp	.+124    	; 0x2b6 <__vector_26+0xd8>
 23a:	80 91 04 01 	lds	r24, 0x0104
 23e:	80 93 bb 00 	sts	0x00BB, r24
 242:	85 e8       	ldi	r24, 0x85	; 133
 244:	80 93 bc 00 	sts	0x00BC, r24
 248:	36 c0       	rjmp	.+108    	; 0x2b6 <__vector_26+0xd8>
 24a:	81 e0       	ldi	r24, 0x01	; 1
 24c:	90 e0       	ldi	r25, 0x00	; 0
 24e:	a3 df       	rcall	.-186    	; 0x196 <led_blinker>
 250:	9b df       	rcall	.-202    	; 0x188 <i2c_stop>
 252:	31 c0       	rjmp	.+98     	; 0x2b6 <__vector_26+0xd8>
 254:	80 91 00 01 	lds	r24, 0x0100
 258:	88 23       	and	r24, r24
 25a:	c9 f0       	breq	.+50     	; 0x28e <__vector_26+0xb0>
 25c:	80 91 02 01 	lds	r24, 0x0102
 260:	90 91 03 01 	lds	r25, 0x0103
 264:	89 2b       	or	r24, r25
 266:	11 f4       	brne	.+4      	; 0x26c <__vector_26+0x8e>
 268:	8f df       	rcall	.-226    	; 0x188 <i2c_stop>
 26a:	07 c0       	rjmp	.+14     	; 0x27a <__vector_26+0x9c>
 26c:	80 91 06 01 	lds	r24, 0x0106
 270:	80 93 bb 00 	sts	0x00BB, r24
 274:	85 e8       	ldi	r24, 0x85	; 133
 276:	80 93 bc 00 	sts	0x00BC, r24
 27a:	80 91 02 01 	lds	r24, 0x0102
 27e:	90 91 03 01 	lds	r25, 0x0103
 282:	01 97       	sbiw	r24, 0x01	; 1
 284:	90 93 03 01 	sts	0x0103, r25
 288:	80 93 02 01 	sts	0x0102, r24
 28c:	14 c0       	rjmp	.+40     	; 0x2b6 <__vector_26+0xd8>
 28e:	76 df       	rcall	.-276    	; 0x17c <i2c_start>
 290:	12 c0       	rjmp	.+36     	; 0x2b6 <__vector_26+0xd8>
 292:	85 e8       	ldi	r24, 0x85	; 133
 294:	80 93 bc 00 	sts	0x00BC, r24
 298:	0e c0       	rjmp	.+28     	; 0x2b6 <__vector_26+0xd8>
 29a:	80 91 bb 00 	lds	r24, 0x00BB
 29e:	80 93 05 01 	sts	0x0105, r24
 2a2:	72 df       	rcall	.-284    	; 0x188 <i2c_stop>
 2a4:	08 c0       	rjmp	.+16     	; 0x2b6 <__vector_26+0xd8>
 2a6:	80 91 bb 00 	lds	r24, 0x00BB
 2aa:	80 93 05 01 	sts	0x0105, r24
 2ae:	83 e0       	ldi	r24, 0x03	; 3
 2b0:	90 e0       	ldi	r25, 0x00	; 0
 2b2:	71 df       	rcall	.-286    	; 0x196 <led_blinker>
 2b4:	69 df       	rcall	.-302    	; 0x188 <i2c_stop>
 2b6:	ff 91       	pop	r31
 2b8:	ef 91       	pop	r30
 2ba:	bf 91       	pop	r27
 2bc:	af 91       	pop	r26
 2be:	9f 91       	pop	r25
 2c0:	8f 91       	pop	r24
 2c2:	7f 91       	pop	r23
 2c4:	6f 91       	pop	r22
 2c6:	5f 91       	pop	r21
 2c8:	4f 91       	pop	r20
 2ca:	3f 91       	pop	r19
 2cc:	2f 91       	pop	r18
 2ce:	0f 90       	pop	r0
 2d0:	0b be       	out	0x3b, r0	; 59
 2d2:	0f 90       	pop	r0
 2d4:	0f be       	out	0x3f, r0	; 63
 2d6:	0f 90       	pop	r0
 2d8:	1f 90       	pop	r1
 2da:	18 95       	reti

000002dc <i2c_write_reg>:


void i2c_write_reg(uint8_t reg_addr, uint8_t data, int n)
{
	while(!i2c_done){};
 2dc:	90 91 01 01 	lds	r25, 0x0101
 2e0:	99 23       	and	r25, r25
 2e2:	e1 f3       	breq	.-8      	; 0x2dc <i2c_write_reg>
	n_o_writes = n;
 2e4:	50 93 03 01 	sts	0x0103, r21
 2e8:	40 93 02 01 	sts	0x0102, r20
	register_addr = reg_addr;
 2ec:	80 93 04 01 	sts	0x0104, r24
	trans_data = data;
 2f0:	60 93 06 01 	sts	0x0106, r22
	write_to_slave = 1;
 2f4:	81 e0       	ldi	r24, 0x01	; 1
 2f6:	80 93 00 01 	sts	0x0100, r24
	i2c_start();
 2fa:	40 cf       	rjmp	.-384    	; 0x17c <i2c_start>
 2fc:	08 95       	ret

000002fe <i2c_read_reg>:
}

uint8_t i2c_read_reg(uint8_t reg_addr)
{
	while(!i2c_done){};
 2fe:	90 91 01 01 	lds	r25, 0x0101
 302:	99 23       	and	r25, r25
 304:	e1 f3       	breq	.-8      	; 0x2fe <i2c_read_reg>
	register_addr = reg_addr;
 306:	80 93 04 01 	sts	0x0104, r24
	write_to_slave = 0;
 30a:	10 92 00 01 	sts	0x0100, r1
	i2c_start();
 30e:	36 df       	rcall	.-404    	; 0x17c <i2c_start>
	
	return rec_data;
 310:	80 91 05 01 	lds	r24, 0x0105
}
 314:	08 95       	ret

00000316 <main>:


int main(void)
{
 316:	cf 93       	push	r28
 318:	df 93       	push	r29
 31a:	cd b7       	in	r28, 0x3d	; 61
 31c:	de b7       	in	r29, 0x3e	; 62
 31e:	28 97       	sbiw	r28, 0x08	; 8
 320:	0f b6       	in	r0, 0x3f	; 63
 322:	f8 94       	cli
 324:	de bf       	out	0x3e, r29	; 62
 326:	0f be       	out	0x3f, r0	; 63
 328:	cd bf       	out	0x3d, r28	; 61
	volatile int8_t y_l_value;
	volatile int8_t y_h_value;
	volatile int8_t z_l_value;
	volatile int8_t z_h_value;
	
	DDRB = (1 << DDB0);
 32a:	81 e0       	ldi	r24, 0x01	; 1
 32c:	84 b9       	out	0x04, r24	; 4
	PORTB = (0 << PORTB0);
 32e:	15 b8       	out	0x05, r1	; 5
	i2c_init();
 330:	1c df       	rcall	.-456    	; 0x16a <i2c_init>
	sei();
 332:	78 94       	sei
	uint8_t set_ctrl_reg_1_100 = 0b01010111;
	/*-----------------------------------------------------------------
	We maybe need to look into CTRL_REG4_A(0x23) to adjust the sensitivity
	CTRL_REG2_A(0x21) configurate a HP-filter
	-----------------------------------------------------------------*/
	i2c_write_reg(ctrl_reg_1, set_ctrl_reg_1_10, 1);
 334:	41 e0       	ldi	r20, 0x01	; 1
 336:	50 e0       	ldi	r21, 0x00	; 0
 338:	67 e2       	ldi	r22, 0x27	; 39
 33a:	80 e2       	ldi	r24, 0x20	; 32
 33c:	cf df       	rcall	.-98     	; 0x2dc <i2c_write_reg>
	#else
		//round up by default
		__ticks_dc = (uint32_t)(ceil(fabs(__tmp)));
	#endif

	__builtin_avr_delay_cycles(__ticks_dc);
 33e:	83 ec       	ldi	r24, 0xC3	; 195
 340:	99 e0       	ldi	r25, 0x09	; 9
 342:	01 97       	sbiw	r24, 0x01	; 1
 344:	f1 f7       	brne	.-4      	; 0x342 <main+0x2c>
 346:	00 c0       	rjmp	.+0      	; 0x348 <main+0x32>
 348:	00 00       	nop

		
		
		_delay_ms(10);
	//	i2c_read_reg(ctrl_reg_1);
		x_l_value = i2c_read_reg(acc_x_l_reg);
 34a:	88 e2       	ldi	r24, 0x28	; 40
 34c:	d8 df       	rcall	.-80     	; 0x2fe <i2c_read_reg>
 34e:	89 83       	std	Y+1, r24	; 0x01
		x_h_value = i2c_read_reg(acc_x_h_reg);
 350:	89 e2       	ldi	r24, 0x29	; 41
 352:	d5 df       	rcall	.-86     	; 0x2fe <i2c_read_reg>
 354:	8a 83       	std	Y+2, r24	; 0x02
		y_l_value = i2c_read_reg(acc_y_l_reg);
 356:	8a e2       	ldi	r24, 0x2A	; 42
 358:	d2 df       	rcall	.-92     	; 0x2fe <i2c_read_reg>
 35a:	8b 83       	std	Y+3, r24	; 0x03
		y_h_value = i2c_read_reg(acc_y_h_reg);
 35c:	8b e2       	ldi	r24, 0x2B	; 43
 35e:	cf df       	rcall	.-98     	; 0x2fe <i2c_read_reg>
 360:	8c 83       	std	Y+4, r24	; 0x04
 362:	83 ec       	ldi	r24, 0xC3	; 195
 364:	99 e0       	ldi	r25, 0x09	; 9
 366:	01 97       	sbiw	r24, 0x01	; 1
 368:	f1 f7       	brne	.-4      	; 0x366 <main+0x50>
 36a:	00 c0       	rjmp	.+0      	; 0x36c <main+0x56>
 36c:	00 00       	nop
		//z_l_value = i2c_read_reg(acc_z_l_reg);
		//z_h_value = i2c_read_reg(acc_z_h_reg);
		_delay_ms(10);
		//Möjligtvis lägga in detta i avbrottsrutinen?
		volatile int16_t data_x = shift_data(x_h_value, x_l_value);
 36e:	89 81       	ldd	r24, Y+1	; 0x01
 370:	2a 81       	ldd	r18, Y+2	; 0x02
//adafruit skiftar 4 till höger i slutet... why??

int16_t shift_data(uint8_t high, uint8_t low) //high och low är båda 2-komlement
{
	int16_t shifted_data = 0;
	uint16_t shifted = (uint16_t)high << 8;
 372:	90 e0       	ldi	r25, 0x00	; 0
	shifted_data = (shifted | (uint16_t)low);
 374:	92 2b       	or	r25, r18
		y_h_value = i2c_read_reg(acc_y_h_reg);
		//z_l_value = i2c_read_reg(acc_z_l_reg);
		//z_h_value = i2c_read_reg(acc_z_h_reg);
		_delay_ms(10);
		//Möjligtvis lägga in detta i avbrottsrutinen?
		volatile int16_t data_x = shift_data(x_h_value, x_l_value);
 376:	98 87       	std	Y+8, r25	; 0x08
 378:	8f 83       	std	Y+7, r24	; 0x07
		volatile int16_t data_y = shift_data(y_h_value, y_l_value);
 37a:	8b 81       	ldd	r24, Y+3	; 0x03
 37c:	2c 81       	ldd	r18, Y+4	; 0x04
//adafruit skiftar 4 till höger i slutet... why??

int16_t shift_data(uint8_t high, uint8_t low) //high och low är båda 2-komlement
{
	int16_t shifted_data = 0;
	uint16_t shifted = (uint16_t)high << 8;
 37e:	90 e0       	ldi	r25, 0x00	; 0
	shifted_data = (shifted | (uint16_t)low);
 380:	92 2b       	or	r25, r18
		//z_l_value = i2c_read_reg(acc_z_l_reg);
		//z_h_value = i2c_read_reg(acc_z_h_reg);
		_delay_ms(10);
		//Möjligtvis lägga in detta i avbrottsrutinen?
		volatile int16_t data_x = shift_data(x_h_value, x_l_value);
		volatile int16_t data_y = shift_data(y_h_value, y_l_value);
 382:	9e 83       	std	Y+6, r25	; 0x06
 384:	8d 83       	std	Y+5, r24	; 0x05
 386:	db cf       	rjmp	.-74     	; 0x33e <main+0x28>

00000388 <__tablejump2__>:
 388:	ee 0f       	add	r30, r30
 38a:	ff 1f       	adc	r31, r31

0000038c <__tablejump__>:
 38c:	05 90       	lpm	r0, Z+
 38e:	f4 91       	lpm	r31, Z
 390:	e0 2d       	mov	r30, r0
 392:	09 94       	ijmp

00000394 <_exit>:
 394:	f8 94       	cli

00000396 <__stop_program>:
 396:	ff cf       	rjmp	.-2      	; 0x396 <__stop_program>
