
i2c_config.elf:     file format elf32-avr

Sections:
Idx Name          Size      VMA       LMA       File off  Algn
  0 .text         000001e8  00000000  00000000  00000054  2**1
                  CONTENTS, ALLOC, LOAD, READONLY, CODE
  1 .comment      00000030  00000000  00000000  0000023c  2**0
                  CONTENTS, READONLY
  2 .debug_aranges 00000078  00000000  00000000  0000026c  2**0
                  CONTENTS, READONLY, DEBUGGING
  3 .debug_info   00000541  00000000  00000000  000002e4  2**0
                  CONTENTS, READONLY, DEBUGGING
  4 .debug_abbrev 00000230  00000000  00000000  00000825  2**0
                  CONTENTS, READONLY, DEBUGGING
  5 .debug_line   000003eb  00000000  00000000  00000a55  2**0
                  CONTENTS, READONLY, DEBUGGING
  6 .debug_frame  00000118  00000000  00000000  00000e40  2**2
                  CONTENTS, READONLY, DEBUGGING
  7 .debug_str    00000254  00000000  00000000  00000f58  2**0
                  CONTENTS, READONLY, DEBUGGING
  8 .debug_loc    000003e8  00000000  00000000  000011ac  2**0
                  CONTENTS, READONLY, DEBUGGING
  9 .debug_ranges 00000068  00000000  00000000  00001594  2**0
                  CONTENTS, READONLY, DEBUGGING

Disassembly of section .text:

00000000 <__vectors>:
   0:	45 c0       	rjmp	.+138    	; 0x8c <__ctors_end>
   2:	00 00       	nop
   4:	4b c0       	rjmp	.+150    	; 0x9c <__bad_interrupt>
   6:	00 00       	nop
   8:	49 c0       	rjmp	.+146    	; 0x9c <__bad_interrupt>
   a:	00 00       	nop
   c:	47 c0       	rjmp	.+142    	; 0x9c <__bad_interrupt>
   e:	00 00       	nop
  10:	45 c0       	rjmp	.+138    	; 0x9c <__bad_interrupt>
  12:	00 00       	nop
  14:	43 c0       	rjmp	.+134    	; 0x9c <__bad_interrupt>
  16:	00 00       	nop
  18:	41 c0       	rjmp	.+130    	; 0x9c <__bad_interrupt>
  1a:	00 00       	nop
  1c:	3f c0       	rjmp	.+126    	; 0x9c <__bad_interrupt>
  1e:	00 00       	nop
  20:	3d c0       	rjmp	.+122    	; 0x9c <__bad_interrupt>
  22:	00 00       	nop
  24:	3b c0       	rjmp	.+118    	; 0x9c <__bad_interrupt>
  26:	00 00       	nop
  28:	39 c0       	rjmp	.+114    	; 0x9c <__bad_interrupt>
  2a:	00 00       	nop
  2c:	37 c0       	rjmp	.+110    	; 0x9c <__bad_interrupt>
  2e:	00 00       	nop
  30:	35 c0       	rjmp	.+106    	; 0x9c <__bad_interrupt>
  32:	00 00       	nop
  34:	33 c0       	rjmp	.+102    	; 0x9c <__bad_interrupt>
  36:	00 00       	nop
  38:	31 c0       	rjmp	.+98     	; 0x9c <__bad_interrupt>
  3a:	00 00       	nop
  3c:	2f c0       	rjmp	.+94     	; 0x9c <__bad_interrupt>
  3e:	00 00       	nop
  40:	2d c0       	rjmp	.+90     	; 0x9c <__bad_interrupt>
  42:	00 00       	nop
  44:	2b c0       	rjmp	.+86     	; 0x9c <__bad_interrupt>
  46:	00 00       	nop
  48:	29 c0       	rjmp	.+82     	; 0x9c <__bad_interrupt>
  4a:	00 00       	nop
  4c:	27 c0       	rjmp	.+78     	; 0x9c <__bad_interrupt>
  4e:	00 00       	nop
  50:	25 c0       	rjmp	.+74     	; 0x9c <__bad_interrupt>
  52:	00 00       	nop
  54:	23 c0       	rjmp	.+70     	; 0x9c <__bad_interrupt>
  56:	00 00       	nop
  58:	21 c0       	rjmp	.+66     	; 0x9c <__bad_interrupt>
  5a:	00 00       	nop
  5c:	1f c0       	rjmp	.+62     	; 0x9c <__bad_interrupt>
  5e:	00 00       	nop
  60:	1d c0       	rjmp	.+58     	; 0x9c <__bad_interrupt>
  62:	00 00       	nop
  64:	1b c0       	rjmp	.+54     	; 0x9c <__bad_interrupt>
  66:	00 00       	nop
  68:	19 c0       	rjmp	.+50     	; 0x9c <__bad_interrupt>
  6a:	00 00       	nop
  6c:	17 c0       	rjmp	.+46     	; 0x9c <__bad_interrupt>
  6e:	00 00       	nop
  70:	15 c0       	rjmp	.+42     	; 0x9c <__bad_interrupt>
  72:	00 00       	nop
  74:	13 c0       	rjmp	.+38     	; 0x9c <__bad_interrupt>
  76:	00 00       	nop
  78:	11 c0       	rjmp	.+34     	; 0x9c <__bad_interrupt>
  7a:	00 00       	nop
  7c:	0f c0       	rjmp	.+30     	; 0x9c <__bad_interrupt>
  7e:	00 00       	nop
  80:	0d c0       	rjmp	.+26     	; 0x9c <__bad_interrupt>
  82:	00 00       	nop
  84:	0b c0       	rjmp	.+22     	; 0x9c <__bad_interrupt>
  86:	00 00       	nop
  88:	09 c0       	rjmp	.+18     	; 0x9c <__bad_interrupt>
	...

0000008c <__ctors_end>:
  8c:	11 24       	eor	r1, r1
  8e:	1f be       	out	0x3f, r1	; 63
  90:	cf ef       	ldi	r28, 0xFF	; 255
  92:	d0 e4       	ldi	r29, 0x40	; 64
  94:	de bf       	out	0x3e, r29	; 62
  96:	cd bf       	out	0x3d, r28	; 61
  98:	83 d0       	rcall	.+262    	; 0x1a0 <main>
  9a:	a4 c0       	rjmp	.+328    	; 0x1e4 <_exit>

0000009c <__bad_interrupt>:
  9c:	b1 cf       	rjmp	.-158    	; 0x0 <__vectors>

0000009e <i2c_init>:
		data[i] = i2c_ack_read();
	}
	data[(length - 1)] = i2c_nack_read();
	
	i2c_stop();
}
  9e:	78 94       	sei
  a0:	10 92 b9 00 	sts	0x00B9, r1
  a4:	8c e0       	ldi	r24, 0x0C	; 12
  a6:	80 93 b8 00 	sts	0x00B8, r24
  aa:	84 e0       	ldi	r24, 0x04	; 4
  ac:	80 93 bc 00 	sts	0x00BC, r24
  b0:	08 95       	ret

000000b2 <i2c_start>:
  b2:	ec eb       	ldi	r30, 0xBC	; 188
  b4:	f0 e0       	ldi	r31, 0x00	; 0
  b6:	10 82       	st	Z, r1
  b8:	94 ea       	ldi	r25, 0xA4	; 164
  ba:	90 83       	st	Z, r25
  bc:	90 81       	ld	r25, Z
  be:	99 23       	and	r25, r25
  c0:	ec f7       	brge	.-6      	; 0xbc <i2c_start+0xa>
  c2:	90 91 b9 00 	lds	r25, 0x00B9
  c6:	98 7f       	andi	r25, 0xF8	; 248
  c8:	98 30       	cpi	r25, 0x08	; 8
  ca:	a1 f4       	brne	.+40     	; 0xf4 <i2c_start+0x42>
  cc:	80 93 bb 00 	sts	0x00BB, r24
  d0:	84 e8       	ldi	r24, 0x84	; 132
  d2:	80 93 bc 00 	sts	0x00BC, r24
  d6:	ec eb       	ldi	r30, 0xBC	; 188
  d8:	f0 e0       	ldi	r31, 0x00	; 0
  da:	80 81       	ld	r24, Z
  dc:	88 23       	and	r24, r24
  de:	ec f7       	brge	.-6      	; 0xda <i2c_start+0x28>
  e0:	90 91 b9 00 	lds	r25, 0x00B9
  e4:	98 7f       	andi	r25, 0xF8	; 248
  e6:	98 31       	cpi	r25, 0x18	; 24
  e8:	39 f0       	breq	.+14     	; 0xf8 <i2c_start+0x46>
  ea:	81 e0       	ldi	r24, 0x01	; 1
  ec:	90 34       	cpi	r25, 0x40	; 64
  ee:	29 f4       	brne	.+10     	; 0xfa <i2c_start+0x48>
  f0:	80 e0       	ldi	r24, 0x00	; 0
  f2:	08 95       	ret
  f4:	81 e0       	ldi	r24, 0x01	; 1
  f6:	08 95       	ret
  f8:	80 e0       	ldi	r24, 0x00	; 0
  fa:	08 95       	ret

000000fc <i2c_repeated_start>:
  fc:	da cf       	rjmp	.-76     	; 0xb2 <i2c_start>
  fe:	08 95       	ret

00000100 <i2c_write>:
 100:	80 93 bb 00 	sts	0x00BB, r24
 104:	84 e8       	ldi	r24, 0x84	; 132
 106:	80 93 bc 00 	sts	0x00BC, r24
 10a:	ec eb       	ldi	r30, 0xBC	; 188
 10c:	f0 e0       	ldi	r31, 0x00	; 0
 10e:	80 81       	ld	r24, Z
 110:	88 23       	and	r24, r24
 112:	ec f7       	brge	.-6      	; 0x10e <i2c_write+0xe>
 114:	90 91 b9 00 	lds	r25, 0x00B9
 118:	98 7f       	andi	r25, 0xF8	; 248
 11a:	81 e0       	ldi	r24, 0x01	; 1
 11c:	98 32       	cpi	r25, 0x28	; 40
 11e:	09 f4       	brne	.+2      	; 0x122 <i2c_write+0x22>
 120:	80 e0       	ldi	r24, 0x00	; 0
 122:	08 95       	ret

00000124 <i2c_nack_read>:
 124:	84 e8       	ldi	r24, 0x84	; 132
 126:	80 93 bc 00 	sts	0x00BC, r24
 12a:	ec eb       	ldi	r30, 0xBC	; 188
 12c:	f0 e0       	ldi	r31, 0x00	; 0
 12e:	80 81       	ld	r24, Z
 130:	88 23       	and	r24, r24
 132:	ec f7       	brge	.-6      	; 0x12e <i2c_nack_read+0xa>
 134:	80 91 bb 00 	lds	r24, 0x00BB
 138:	08 95       	ret

0000013a <led_blinker>:
 13a:	88 23       	and	r24, r24
 13c:	91 f0       	breq	.+36     	; 0x162 <led_blinker+0x28>
 13e:	90 e0       	ldi	r25, 0x00	; 0
 140:	28 9a       	sbi	0x05, 0	; 5
 142:	ef e1       	ldi	r30, 0x1F	; 31
 144:	fe e4       	ldi	r31, 0x4E	; 78
 146:	31 97       	sbiw	r30, 0x01	; 1
 148:	f1 f7       	brne	.-4      	; 0x146 <led_blinker+0xc>
 14a:	00 c0       	rjmp	.+0      	; 0x14c <led_blinker+0x12>
 14c:	00 00       	nop
 14e:	15 b8       	out	0x05, r1	; 5
 150:	ef e1       	ldi	r30, 0x1F	; 31
 152:	fe e4       	ldi	r31, 0x4E	; 78
 154:	31 97       	sbiw	r30, 0x01	; 1
 156:	f1 f7       	brne	.-4      	; 0x154 <led_blinker+0x1a>
 158:	00 c0       	rjmp	.+0      	; 0x15a <led_blinker+0x20>
 15a:	00 00       	nop
 15c:	9f 5f       	subi	r25, 0xFF	; 255
 15e:	98 13       	cpse	r25, r24
 160:	ef cf       	rjmp	.-34     	; 0x140 <led_blinker+0x6>
 162:	08 95       	ret

00000164 <accel_i2c_write_reg>:
 164:	cf 93       	push	r28
 166:	df 93       	push	r29
 168:	d8 2f       	mov	r29, r24
 16a:	c6 2f       	mov	r28, r22
 16c:	82 e3       	ldi	r24, 0x32	; 50
 16e:	a1 df       	rcall	.-190    	; 0xb2 <i2c_start>
 170:	8d 2f       	mov	r24, r29
 172:	c6 df       	rcall	.-116    	; 0x100 <i2c_write>
 174:	8c 2f       	mov	r24, r28
 176:	c4 df       	rcall	.-120    	; 0x100 <i2c_write>
 178:	84 e9       	ldi	r24, 0x94	; 148
 17a:	80 93 bc 00 	sts	0x00BC, r24
 17e:	df 91       	pop	r29
 180:	cf 91       	pop	r28
 182:	08 95       	ret

00000184 <accel_i2c_read_reg>:
 184:	cf 93       	push	r28
 186:	c8 2f       	mov	r28, r24
 188:	82 e3       	ldi	r24, 0x32	; 50
 18a:	93 df       	rcall	.-218    	; 0xb2 <i2c_start>
 18c:	8c 2f       	mov	r24, r28
 18e:	b8 df       	rcall	.-144    	; 0x100 <i2c_write>
 190:	83 e3       	ldi	r24, 0x33	; 51
 192:	b4 df       	rcall	.-152    	; 0xfc <i2c_repeated_start>
 194:	c7 df       	rcall	.-114    	; 0x124 <i2c_nack_read>
 196:	94 e9       	ldi	r25, 0x94	; 148
 198:	90 93 bc 00 	sts	0x00BC, r25
 19c:	cf 91       	pop	r28
 19e:	08 95       	ret

000001a0 <main>:




int main(void)
{
 1a0:	cf 93       	push	r28
	
	DDRB = (1 << DDB0);
 1a2:	81 e0       	ldi	r24, 0x01	; 1
 1a4:	84 b9       	out	0x04, r24	; 4
	PORTB = (0 << PORTB0);
 1a6:	15 b8       	out	0x05, r1	; 5
	#else
		//round up by default
		__ticks_dc = (uint32_t)(ceil(fabs(__tmp)));
	#endif

	__builtin_avr_delay_cycles(__ticks_dc);
 1a8:	2f ef       	ldi	r18, 0xFF	; 255
 1aa:	84 e3       	ldi	r24, 0x34	; 52
 1ac:	9c e0       	ldi	r25, 0x0C	; 12
 1ae:	21 50       	subi	r18, 0x01	; 1
 1b0:	80 40       	sbci	r24, 0x00	; 0
 1b2:	90 40       	sbci	r25, 0x00	; 0
 1b4:	e1 f7       	brne	.-8      	; 0x1ae <main+0xe>
 1b6:	00 c0       	rjmp	.+0      	; 0x1b8 <main+0x18>
 1b8:	00 00       	nop
	_delay_ms(500);
    //PORTB = 0x00;
	//kanske behöver en array?
	uint8_t saved_data = 0x00;
	i2c_init();
 1ba:	71 df       	rcall	.-286    	; 0x9e <i2c_init>
	
	accel_i2c_write_reg(test_reg_addr,0x55);
 1bc:	65 e5       	ldi	r22, 0x55	; 85
 1be:	80 e2       	ldi	r24, 0x20	; 32
 1c0:	d1 df       	rcall	.-94     	; 0x164 <accel_i2c_write_reg>
	
	//while (1)
	//{
		//accel_i2c_read_reg(test_reg_addr, saved_data);
	//}
	uint8_t final_data = accel_i2c_read_reg(test_reg_addr, saved_data);
 1c2:	60 e0       	ldi	r22, 0x00	; 0
 1c4:	80 e2       	ldi	r24, 0x20	; 32
 1c6:	de df       	rcall	.-68     	; 0x184 <accel_i2c_read_reg>
 1c8:	c8 2f       	mov	r28, r24
	//printf("Detta är värdet på sparad data%d\n", saved_data);	
	
	//led_blinker(final_data);
	led_blinker(saved_data);
 1ca:	80 e0       	ldi	r24, 0x00	; 0
 1cc:	b6 df       	rcall	.-148    	; 0x13a <led_blinker>
	if (final_data == 0x55)
 1ce:	c5 35       	cpi	r28, 0x55	; 85
 1d0:	19 f4       	brne	.+6      	; 0x1d8 <main+0x38>
	{
		led_blinker(50);
 1d2:	82 e3       	ldi	r24, 0x32	; 50
 1d4:	b2 df       	rcall	.-156    	; 0x13a <led_blinker>
 1d6:	02 c0       	rjmp	.+4      	; 0x1dc <main+0x3c>
	}
	else
	{
		led_blinker(1);
 1d8:	81 e0       	ldi	r24, 0x01	; 1
 1da:	af df       	rcall	.-162    	; 0x13a <led_blinker>
	}
	return SUCCESS;
}
 1dc:	80 e0       	ldi	r24, 0x00	; 0
 1de:	90 e0       	ldi	r25, 0x00	; 0
 1e0:	cf 91       	pop	r28
 1e2:	08 95       	ret

000001e4 <_exit>:
 1e4:	f8 94       	cli

000001e6 <__stop_program>:
 1e6:	ff cf       	rjmp	.-2      	; 0x1e6 <__stop_program>
