
i2c_config.elf:     file format elf32-avr

Sections:
Idx Name          Size      VMA       LMA       File off  Algn
  0 .data         00000002  00800100  00000292  00000326  2**0
                  CONTENTS, ALLOC, LOAD, DATA
  1 .text         00000292  00000000  00000000  00000094  2**1
                  CONTENTS, ALLOC, LOAD, READONLY, CODE
  2 .bss          00000005  00800102  00800102  00000328  2**0
                  ALLOC
  3 .comment      00000030  00000000  00000000  00000328  2**0
                  CONTENTS, READONLY
  4 .debug_aranges 00000068  00000000  00000000  00000358  2**0
                  CONTENTS, READONLY, DEBUGGING
  5 .debug_info   0000052c  00000000  00000000  000003c0  2**0
                  CONTENTS, READONLY, DEBUGGING
  6 .debug_abbrev 00000243  00000000  00000000  000008ec  2**0
                  CONTENTS, READONLY, DEBUGGING
  7 .debug_line   00000356  00000000  00000000  00000b2f  2**0
                  CONTENTS, READONLY, DEBUGGING
  8 .debug_frame  00000104  00000000  00000000  00000e88  2**2
                  CONTENTS, READONLY, DEBUGGING
  9 .debug_str    0000026c  00000000  00000000  00000f8c  2**0
                  CONTENTS, READONLY, DEBUGGING
 10 .debug_loc    00000471  00000000  00000000  000011f8  2**0
                  CONTENTS, READONLY, DEBUGGING
 11 .debug_ranges 00000058  00000000  00000000  00001669  2**0
                  CONTENTS, READONLY, DEBUGGING

Disassembly of section .text:

00000000 <__vectors>:
   0:	45 c0       	rjmp	.+138    	; 0x8c <__ctors_end>
   2:	00 00       	nop
   4:	60 c0       	rjmp	.+192    	; 0xc6 <__bad_interrupt>
   6:	00 00       	nop
   8:	5e c0       	rjmp	.+188    	; 0xc6 <__bad_interrupt>
   a:	00 00       	nop
   c:	5c c0       	rjmp	.+184    	; 0xc6 <__bad_interrupt>
   e:	00 00       	nop
  10:	5a c0       	rjmp	.+180    	; 0xc6 <__bad_interrupt>
  12:	00 00       	nop
  14:	58 c0       	rjmp	.+176    	; 0xc6 <__bad_interrupt>
  16:	00 00       	nop
  18:	56 c0       	rjmp	.+172    	; 0xc6 <__bad_interrupt>
  1a:	00 00       	nop
  1c:	54 c0       	rjmp	.+168    	; 0xc6 <__bad_interrupt>
  1e:	00 00       	nop
  20:	52 c0       	rjmp	.+164    	; 0xc6 <__bad_interrupt>
  22:	00 00       	nop
  24:	50 c0       	rjmp	.+160    	; 0xc6 <__bad_interrupt>
  26:	00 00       	nop
  28:	4e c0       	rjmp	.+156    	; 0xc6 <__bad_interrupt>
  2a:	00 00       	nop
  2c:	4c c0       	rjmp	.+152    	; 0xc6 <__bad_interrupt>
  2e:	00 00       	nop
  30:	4a c0       	rjmp	.+148    	; 0xc6 <__bad_interrupt>
  32:	00 00       	nop
  34:	48 c0       	rjmp	.+144    	; 0xc6 <__bad_interrupt>
  36:	00 00       	nop
  38:	46 c0       	rjmp	.+140    	; 0xc6 <__bad_interrupt>
  3a:	00 00       	nop
  3c:	44 c0       	rjmp	.+136    	; 0xc6 <__bad_interrupt>
  3e:	00 00       	nop
  40:	42 c0       	rjmp	.+132    	; 0xc6 <__bad_interrupt>
  42:	00 00       	nop
  44:	40 c0       	rjmp	.+128    	; 0xc6 <__bad_interrupt>
  46:	00 00       	nop
  48:	3e c0       	rjmp	.+124    	; 0xc6 <__bad_interrupt>
  4a:	00 00       	nop
  4c:	3c c0       	rjmp	.+120    	; 0xc6 <__bad_interrupt>
  4e:	00 00       	nop
  50:	3a c0       	rjmp	.+116    	; 0xc6 <__bad_interrupt>
  52:	00 00       	nop
  54:	38 c0       	rjmp	.+112    	; 0xc6 <__bad_interrupt>
  56:	00 00       	nop
  58:	36 c0       	rjmp	.+108    	; 0xc6 <__bad_interrupt>
  5a:	00 00       	nop
  5c:	34 c0       	rjmp	.+104    	; 0xc6 <__bad_interrupt>
  5e:	00 00       	nop
  60:	32 c0       	rjmp	.+100    	; 0xc6 <__bad_interrupt>
  62:	00 00       	nop
  64:	30 c0       	rjmp	.+96     	; 0xc6 <__bad_interrupt>
  66:	00 00       	nop
  68:	75 c0       	rjmp	.+234    	; 0x154 <__vector_26>
  6a:	00 00       	nop
  6c:	2c c0       	rjmp	.+88     	; 0xc6 <__bad_interrupt>
  6e:	00 00       	nop
  70:	2a c0       	rjmp	.+84     	; 0xc6 <__bad_interrupt>
  72:	00 00       	nop
  74:	28 c0       	rjmp	.+80     	; 0xc6 <__bad_interrupt>
  76:	00 00       	nop
  78:	26 c0       	rjmp	.+76     	; 0xc6 <__bad_interrupt>
  7a:	00 00       	nop
  7c:	24 c0       	rjmp	.+72     	; 0xc6 <__bad_interrupt>
  7e:	00 00       	nop
  80:	22 c0       	rjmp	.+68     	; 0xc6 <__bad_interrupt>
  82:	00 00       	nop
  84:	20 c0       	rjmp	.+64     	; 0xc6 <__bad_interrupt>
  86:	00 00       	nop
  88:	1e c0       	rjmp	.+60     	; 0xc6 <__bad_interrupt>
	...

0000008c <__ctors_end>:
  8c:	11 24       	eor	r1, r1
  8e:	1f be       	out	0x3f, r1	; 63
  90:	cf ef       	ldi	r28, 0xFF	; 255
  92:	d0 e4       	ldi	r29, 0x40	; 64
  94:	de bf       	out	0x3e, r29	; 62
  96:	cd bf       	out	0x3d, r28	; 61

00000098 <__do_copy_data>:
  98:	11 e0       	ldi	r17, 0x01	; 1
  9a:	a0 e0       	ldi	r26, 0x00	; 0
  9c:	b1 e0       	ldi	r27, 0x01	; 1
  9e:	e2 e9       	ldi	r30, 0x92	; 146
  a0:	f2 e0       	ldi	r31, 0x02	; 2
  a2:	00 e0       	ldi	r16, 0x00	; 0
  a4:	0b bf       	out	0x3b, r16	; 59
  a6:	02 c0       	rjmp	.+4      	; 0xac <__do_copy_data+0x14>
  a8:	07 90       	elpm	r0, Z+
  aa:	0d 92       	st	X+, r0
  ac:	a2 30       	cpi	r26, 0x02	; 2
  ae:	b1 07       	cpc	r27, r17
  b0:	d9 f7       	brne	.-10     	; 0xa8 <__do_copy_data+0x10>

000000b2 <__do_clear_bss>:
  b2:	21 e0       	ldi	r18, 0x01	; 1
  b4:	a2 e0       	ldi	r26, 0x02	; 2
  b6:	b1 e0       	ldi	r27, 0x01	; 1
  b8:	01 c0       	rjmp	.+2      	; 0xbc <.do_clear_bss_start>

000000ba <.do_clear_bss_loop>:
  ba:	1d 92       	st	X+, r1

000000bc <.do_clear_bss_start>:
  bc:	a7 30       	cpi	r26, 0x07	; 7
  be:	b2 07       	cpc	r27, r18
  c0:	e1 f7       	brne	.-8      	; 0xba <.do_clear_bss_loop>
  c2:	cf d0       	rcall	.+414    	; 0x262 <main>
  c4:	e4 c0       	rjmp	.+456    	; 0x28e <_exit>

000000c6 <__bad_interrupt>:
  c6:	9c cf       	rjmp	.-200    	; 0x0 <__vectors>

000000c8 <led_blinker>:
{
	uint16_t data = 0;
	uint16_t shifted = high * pow(2,8);
	data = shifted + low;
	return (short) data;
}
  c8:	2f e9       	ldi	r18, 0x9F	; 159
  ca:	36 e8       	ldi	r19, 0x86	; 134
  cc:	41 e0       	ldi	r20, 0x01	; 1
  ce:	21 50       	subi	r18, 0x01	; 1
  d0:	30 40       	sbci	r19, 0x00	; 0
  d2:	40 40       	sbci	r20, 0x00	; 0
  d4:	e1 f7       	brne	.-8      	; 0xce <led_blinker+0x6>
  d6:	00 c0       	rjmp	.+0      	; 0xd8 <led_blinker+0x10>
  d8:	00 00       	nop
  da:	88 23       	and	r24, r24
  dc:	c1 f0       	breq	.+48     	; 0x10e <led_blinker+0x46>
  de:	90 e0       	ldi	r25, 0x00	; 0
  e0:	28 9a       	sbi	0x05, 0	; 5
  e2:	2f e9       	ldi	r18, 0x9F	; 159
  e4:	36 e8       	ldi	r19, 0x86	; 134
  e6:	41 e0       	ldi	r20, 0x01	; 1
  e8:	21 50       	subi	r18, 0x01	; 1
  ea:	30 40       	sbci	r19, 0x00	; 0
  ec:	40 40       	sbci	r20, 0x00	; 0
  ee:	e1 f7       	brne	.-8      	; 0xe8 <led_blinker+0x20>
  f0:	00 c0       	rjmp	.+0      	; 0xf2 <led_blinker+0x2a>
  f2:	00 00       	nop
  f4:	15 b8       	out	0x05, r1	; 5
  f6:	2f e9       	ldi	r18, 0x9F	; 159
  f8:	36 e8       	ldi	r19, 0x86	; 134
  fa:	41 e0       	ldi	r20, 0x01	; 1
  fc:	21 50       	subi	r18, 0x01	; 1
  fe:	30 40       	sbci	r19, 0x00	; 0
 100:	40 40       	sbci	r20, 0x00	; 0
 102:	e1 f7       	brne	.-8      	; 0xfc <led_blinker+0x34>
 104:	00 c0       	rjmp	.+0      	; 0x106 <led_blinker+0x3e>
 106:	00 00       	nop
 108:	9f 5f       	subi	r25, 0xFF	; 255
 10a:	98 13       	cpse	r25, r24
 10c:	e9 cf       	rjmp	.-46     	; 0xe0 <led_blinker+0x18>
 10e:	08 95       	ret

00000110 <i2c_init>:
 110:	10 92 b9 00 	sts	0x00B9, r1
 114:	8c e0       	ldi	r24, 0x0C	; 12
 116:	80 93 b8 00 	sts	0x00B8, r24
 11a:	85 e0       	ldi	r24, 0x05	; 5
 11c:	80 93 bc 00 	sts	0x00BC, r24
 120:	08 95       	ret

00000122 <i2c_write_reg>:



void i2c_write_reg(uint8_t reg_addr, uint8_t data, int n)
{
	n_o_writes = n;
 122:	50 93 03 01 	sts	0x0103, r21
 126:	40 93 02 01 	sts	0x0102, r20
	register_addr = reg_addr;
 12a:	80 93 04 01 	sts	0x0104, r24
	trans_data = data;
 12e:	60 93 06 01 	sts	0x0106, r22
	write_to_slave = 1;
 132:	81 e0       	ldi	r24, 0x01	; 1
 134:	80 93 00 01 	sts	0x0100, r24
	TWCR = (1 << TWEN)|(1 << TWIE);
}

void i2c_start(void)
{
	TWCR = (1 << TWINT)|(1 << TWSTA)|(0 << TWSTO);
 138:	80 ea       	ldi	r24, 0xA0	; 160
 13a:	80 93 bc 00 	sts	0x00BC, r24
 13e:	08 95       	ret

00000140 <i2c_read_reg>:
	i2c_start();
}

uint8_t i2c_read_reg(uint8_t reg_addr)
{
	register_addr = reg_addr;
 140:	80 93 04 01 	sts	0x0104, r24
	write_to_slave = 0;
 144:	10 92 00 01 	sts	0x0100, r1
	TWCR = (1 << TWEN)|(1 << TWIE);
}

void i2c_start(void)
{
	TWCR = (1 << TWINT)|(1 << TWSTA)|(0 << TWSTO);
 148:	80 ea       	ldi	r24, 0xA0	; 160
 14a:	80 93 bc 00 	sts	0x00BC, r24
{
	register_addr = reg_addr;
	write_to_slave = 0;
	i2c_start();
	
	return rec_data;
 14e:	80 91 05 01 	lds	r24, 0x0105
}
 152:	08 95       	ret

00000154 <__vector_26>:

ISR(TWI_vect)
{
 154:	1f 92       	push	r1
 156:	0f 92       	push	r0
 158:	0f b6       	in	r0, 0x3f	; 63
 15a:	0f 92       	push	r0
 15c:	11 24       	eor	r1, r1
 15e:	0b b6       	in	r0, 0x3b	; 59
 160:	0f 92       	push	r0
 162:	2f 93       	push	r18
 164:	3f 93       	push	r19
 166:	4f 93       	push	r20
 168:	5f 93       	push	r21
 16a:	6f 93       	push	r22
 16c:	7f 93       	push	r23
 16e:	8f 93       	push	r24
 170:	9f 93       	push	r25
 172:	af 93       	push	r26
 174:	bf 93       	push	r27
 176:	ef 93       	push	r30
 178:	ff 93       	push	r31
	uint8_t status = (TWSR & 0xF8);
 17a:	80 91 b9 00 	lds	r24, 0x00B9
 17e:	88 7f       	andi	r24, 0xF8	; 248
	switch (status)
 180:	80 32       	cpi	r24, 0x20	; 32
 182:	41 f1       	breq	.+80     	; 0x1d4 <__vector_26+0x80>
 184:	40 f4       	brcc	.+16     	; 0x196 <__vector_26+0x42>
 186:	80 31       	cpi	r24, 0x10	; 16
 188:	b9 f0       	breq	.+46     	; 0x1b8 <__vector_26+0x64>
 18a:	88 31       	cpi	r24, 0x18	; 24
 18c:	d9 f0       	breq	.+54     	; 0x1c4 <__vector_26+0x70>
 18e:	88 30       	cpi	r24, 0x08	; 8
 190:	09 f0       	breq	.+2      	; 0x194 <__vector_26+0x40>
 192:	54 c0       	rjmp	.+168    	; 0x23c <__vector_26+0xe8>
 194:	0a c0       	rjmp	.+20     	; 0x1aa <__vector_26+0x56>
 196:	80 34       	cpi	r24, 0x40	; 64
 198:	09 f4       	brne	.+2      	; 0x19c <__vector_26+0x48>
 19a:	45 c0       	rjmp	.+138    	; 0x226 <__vector_26+0xd2>
 19c:	88 35       	cpi	r24, 0x58	; 88
 19e:	09 f4       	brne	.+2      	; 0x1a2 <__vector_26+0x4e>
 1a0:	46 c0       	rjmp	.+140    	; 0x22e <__vector_26+0xda>
 1a2:	88 32       	cpi	r24, 0x28	; 40
 1a4:	09 f0       	breq	.+2      	; 0x1a8 <__vector_26+0x54>
 1a6:	4a c0       	rjmp	.+148    	; 0x23c <__vector_26+0xe8>
 1a8:	1b c0       	rjmp	.+54     	; 0x1e0 <__vector_26+0x8c>
	TWCR = (1 << TWINT)|(0 << TWSTA)|(1 << TWSTO);
}

void i2c_send_data(uint8_t data)
{
		TWDR = data;
 1aa:	82 e3       	ldi	r24, 0x32	; 50
 1ac:	80 93 bb 00 	sts	0x00BB, r24
		TWCR = (1 << TWINT)|(0 << TWSTA)|(0 << TWSTO);
 1b0:	80 e8       	ldi	r24, 0x80	; 128
 1b2:	80 93 bc 00 	sts	0x00BC, r24
 1b6:	42 c0       	rjmp	.+132    	; 0x23c <__vector_26+0xe8>
	TWCR = (1 << TWINT)|(0 << TWSTA)|(1 << TWSTO);
}

void i2c_send_data(uint8_t data)
{
		TWDR = data;
 1b8:	83 e3       	ldi	r24, 0x33	; 51
 1ba:	80 93 bb 00 	sts	0x00BB, r24
		TWCR = (1 << TWINT)|(0 << TWSTA)|(0 << TWSTO);
 1be:	80 e8       	ldi	r24, 0x80	; 128
 1c0:	80 93 bc 00 	sts	0x00BC, r24
		break;
	case TW_REP_START: //2
		i2c_send_data(accel_addr + I2C_READ);
		
	case TW_MT_SLA_ACK: //3
		i2c_send_data(register_addr); //tans_data = register vi vill läsa från
 1c4:	80 91 04 01 	lds	r24, 0x0104
	TWCR = (1 << TWINT)|(0 << TWSTA)|(1 << TWSTO);
}

void i2c_send_data(uint8_t data)
{
		TWDR = data;
 1c8:	80 93 bb 00 	sts	0x00BB, r24
		TWCR = (1 << TWINT)|(0 << TWSTA)|(0 << TWSTO);
 1cc:	80 e8       	ldi	r24, 0x80	; 128
 1ce:	80 93 bc 00 	sts	0x00BC, r24
 1d2:	34 c0       	rjmp	.+104    	; 0x23c <__vector_26+0xe8>
		
	case TW_MT_SLA_ACK: //3
		i2c_send_data(register_addr); //tans_data = register vi vill läsa från
		break;
	case TW_MT_SLA_NACK: //4
		led_blinker(15);
 1d4:	8f e0       	ldi	r24, 0x0F	; 15
 1d6:	78 df       	rcall	.-272    	; 0xc8 <led_blinker>
	TWCR = (1 << TWINT)|(1 << TWSTA)|(0 << TWSTO);
}

void i2c_stop(void)
{
	TWCR = (1 << TWINT)|(0 << TWSTA)|(1 << TWSTO);
 1d8:	80 e9       	ldi	r24, 0x90	; 144
 1da:	80 93 bc 00 	sts	0x00BC, r24
 1de:	2e c0       	rjmp	.+92     	; 0x23c <__vector_26+0xe8>
	case TW_MT_SLA_NACK: //4
		led_blinker(15);
		i2c_stop();
		break;
	case TW_MT_DATA_ACK: //5
		if(write_to_slave)
 1e0:	80 91 00 01 	lds	r24, 0x0100
 1e4:	88 23       	and	r24, r24
 1e6:	d9 f0       	breq	.+54     	; 0x21e <__vector_26+0xca>
		{
			n_o_writes = n_o_writes - 1;
 1e8:	80 91 02 01 	lds	r24, 0x0102
 1ec:	90 91 03 01 	lds	r25, 0x0103
 1f0:	01 97       	sbiw	r24, 0x01	; 1
 1f2:	90 93 03 01 	sts	0x0103, r25
 1f6:	80 93 02 01 	sts	0x0102, r24
			if(n_o_writes == 0)
 1fa:	80 91 02 01 	lds	r24, 0x0102
 1fe:	90 91 03 01 	lds	r25, 0x0103
 202:	89 2b       	or	r24, r25
 204:	21 f4       	brne	.+8      	; 0x20e <__vector_26+0xba>
	TWCR = (1 << TWINT)|(1 << TWSTA)|(0 << TWSTO);
}

void i2c_stop(void)
{
	TWCR = (1 << TWINT)|(0 << TWSTA)|(1 << TWSTO);
 206:	80 e9       	ldi	r24, 0x90	; 144
 208:	80 93 bc 00 	sts	0x00BC, r24
 20c:	17 c0       	rjmp	.+46     	; 0x23c <__vector_26+0xe8>
			{
				i2c_stop();
			}
			else
			{
				i2c_send_data(trans_data);	
 20e:	80 91 06 01 	lds	r24, 0x0106
	TWCR = (1 << TWINT)|(0 << TWSTA)|(1 << TWSTO);
}

void i2c_send_data(uint8_t data)
{
		TWDR = data;
 212:	80 93 bb 00 	sts	0x00BB, r24
		TWCR = (1 << TWINT)|(0 << TWSTA)|(0 << TWSTO);
 216:	80 e8       	ldi	r24, 0x80	; 128
 218:	80 93 bc 00 	sts	0x00BC, r24
 21c:	0f c0       	rjmp	.+30     	; 0x23c <__vector_26+0xe8>
	TWCR = (1 << TWEN)|(1 << TWIE);
}

void i2c_start(void)
{
	TWCR = (1 << TWINT)|(1 << TWSTA)|(0 << TWSTO);
 21e:	80 ea       	ldi	r24, 0xA0	; 160
 220:	80 93 bc 00 	sts	0x00BC, r24
 224:	0b c0       	rjmp	.+22     	; 0x23c <__vector_26+0xe8>
			i2c_start(); //repeated start	
		}
		
		break;
	case TW_MR_SLA_ACK: //6
		TWCR = (1 << TWINT)|(0 << TWSTA)|(0 << TWSTO)|(1 << TWEA); //lade till TWEA för att vi vill få en ACK.
 226:	80 ec       	ldi	r24, 0xC0	; 192
 228:	80 93 bc 00 	sts	0x00BC, r24
		break;
 22c:	07 c0       	rjmp	.+14     	; 0x23c <__vector_26+0xe8>
	case TW_MR_DATA_NACK: //7
		rec_data = TWDR;
 22e:	80 91 bb 00 	lds	r24, 0x00BB
 232:	80 93 05 01 	sts	0x0105, r24
	TWCR = (1 << TWINT)|(1 << TWSTA)|(0 << TWSTO);
}

void i2c_stop(void)
{
	TWCR = (1 << TWINT)|(0 << TWSTA)|(1 << TWSTO);
 236:	80 e9       	ldi	r24, 0x90	; 144
 238:	80 93 bc 00 	sts	0x00BC, r24
	case TW_MR_DATA_NACK: //7
		rec_data = TWDR;
		i2c_stop();
		break;
	}
}
 23c:	ff 91       	pop	r31
 23e:	ef 91       	pop	r30
 240:	bf 91       	pop	r27
 242:	af 91       	pop	r26
 244:	9f 91       	pop	r25
 246:	8f 91       	pop	r24
 248:	7f 91       	pop	r23
 24a:	6f 91       	pop	r22
 24c:	5f 91       	pop	r21
 24e:	4f 91       	pop	r20
 250:	3f 91       	pop	r19
 252:	2f 91       	pop	r18
 254:	0f 90       	pop	r0
 256:	0b be       	out	0x3b, r0	; 59
 258:	0f 90       	pop	r0
 25a:	0f be       	out	0x3f, r0	; 63
 25c:	0f 90       	pop	r0
 25e:	1f 90       	pop	r1
 260:	18 95       	reti

00000262 <main>:

int main(void)
{
	DDRB = (1 << DDB0);
 262:	81 e0       	ldi	r24, 0x01	; 1
 264:	84 b9       	out	0x04, r24	; 4
	PORTB = (0 << PORTB0);
 266:	15 b8       	out	0x05, r1	; 5
	i2c_init();
 268:	53 df       	rcall	.-346    	; 0x110 <i2c_init>
	sei();
 26a:	78 94       	sei
	uint8_t set_ctrl_reg_1 = 0b01000111;
	i2c_write_reg(ctrl_reg_1, set_ctrl_reg_1, 1);
 26c:	41 e0       	ldi	r20, 0x01	; 1
 26e:	50 e0       	ldi	r21, 0x00	; 0
 270:	67 e4       	ldi	r22, 0x47	; 71
 272:	80 e2       	ldi	r24, 0x20	; 32
 274:	56 df       	rcall	.-340    	; 0x122 <i2c_write_reg>
	uint8_t out = i2c_read_reg(ctrl_reg_1);
 276:	80 e2       	ldi	r24, 0x20	; 32
 278:	63 df       	rcall	.-314    	; 0x140 <i2c_read_reg>
	if (out == set_ctrl_reg_1)
 27a:	87 34       	cpi	r24, 0x47	; 71
 27c:	19 f4       	brne	.+6      	; 0x284 <main+0x22>
	{
		led_blinker(5);
 27e:	85 e0       	ldi	r24, 0x05	; 5
 280:	23 df       	rcall	.-442    	; 0xc8 <led_blinker>
 282:	02 c0       	rjmp	.+4      	; 0x288 <main+0x26>
	}
	else
	{
		led_blinker(10);
 284:	8a e0       	ldi	r24, 0x0A	; 10
 286:	20 df       	rcall	.-448    	; 0xc8 <led_blinker>
	}
	return 0;
 288:	80 e0       	ldi	r24, 0x00	; 0
 28a:	90 e0       	ldi	r25, 0x00	; 0
 28c:	08 95       	ret

0000028e <_exit>:
 28e:	f8 94       	cli

00000290 <__stop_program>:
 290:	ff cf       	rjmp	.-2      	; 0x290 <__stop_program>
